; Function Attrs: nounwind sspstrong uwtable
define dso_local void @timerlistgroup_init(ptr noundef writeonly captures(none) %tlg, ptr noundef %cb, ptr noundef %opaque) local_unnamed_addr #0 {
entry:
  br label %for.body

for.body:                                         ; preds = %entry, %timerlist_new.exit
  %indvars.iv = phi i64 [ 0, %entry ], [ %indvars.iv.next, %timerlist_new.exit ]
  %arrayidx.i.i = getelementptr [4 x %struct.QEMUClock], ptr @qemu_clocks, i64 0, i64 %indvars.iv
  %call1.i = tail call noalias dereferenceable_or_null(104) ptr @g_malloc0_n(i64 noundef 1, i64 noundef 104) #16
  %timers_done_ev.i = getelementptr inbounds nuw i8, ptr %call1.i, i64 96
  tail call void @qemu_event_init(ptr noundef nonnull %timers_done_ev.i, i1 noundef zeroext true) #17
  store ptr %arrayidx.i.i, ptr %call1.i, align 8
  %notify_cb.i = getelementptr inbounds nuw i8, ptr %call1.i, i64 80
  store ptr %cb, ptr %notify_cb.i, align 8
  %notify_opaque.i = getelementptr inbounds nuw i8, ptr %call1.i, i64 88
  store ptr %opaque, ptr %notify_opaque.i, align 8
  %active_timers_lock.i = getelementptr inbounds nuw i8, ptr %call1.i, i64 8
  tail call void @qemu_mutex_init(ptr noundef nonnull %active_timers_lock.i) #17
  %0 = load ptr, ptr %arrayidx.i.i, align 16
  %list.i = getelementptr inbounds nuw i8, ptr %call1.i, i64 64
  store ptr %0, ptr %list.i, align 8
  %cmp.not.i = icmp eq ptr %0, null
  br i1 %cmp.not.i, label %timerlist_new.exit, label %if.then.i

if.then.i:                                        ; preds = %for.body
  %le_prev.i = getelementptr inbounds nuw i8, ptr %0, i64 72
  store ptr %list.i, ptr %le_prev.i, align 8
  br label %timerlist_new.exit

timerlist_new.exit:                               ; preds = %for.body, %if.then.i
  store ptr %call1.i, ptr %arrayidx.i.i, align 16
  %le_prev13.i = getelementptr inbounds nuw i8, ptr %call1.i, i64 72
  store ptr %arrayidx.i.i, ptr %le_prev13.i, align 8
  %arrayidx = getelementptr [4 x ptr], ptr %tlg, i64 0, i64 %indvars.iv
  store ptr %call1.i, ptr %arrayidx, align 8
  %indvars.iv.next = add nuw nsw i64 %indvars.iv, 1
  %exitcond.not = icmp eq i64 %indvars.iv.next, 4
  br i1 %exitcond.not, label %for.end, label %for.body, !llvm.loop !11

for.end:                                          ; preds = %timerlist_new.exit
  ret void
}